 zlibwapi

 Timestamp is 622a4a65 (Thu Mar 10 21:58:45 2022)

 Preferred load address is 10000000

 Start         Length     Name                   Class
 0001:00000000 000225e9H .text$mn                CODE
 0002:00000000 00000104H .CRT$XCA                DATA
 0002:00000104 00000104H .CRT$XCZ                DATA
 0002:00000208 00000104H .CRT$XIA                DATA
 0002:0000030c 00000104H .CRT$XIZ                DATA
 0002:00000410 00000104H .CRT$XPA                DATA
 0002:00000514 00000104H .CRT$XPZ                DATA
 0002:00000618 00000104H .CRT$XTA                DATA
 0002:0000071c 00000104H .CRT$XTZ                DATA
 0002:00000820 00004cdcH .rdata                  DATA
 0002:000054fc 000001a0H .rdata$zzzdbg           DATA
 0002:0000569c 00000104H .rtc$IAA                DATA
 0002:000057a0 00000104H .rtc$IZZ                DATA
 0002:000058a4 00000104H .rtc$TAA                DATA
 0002:000059a8 00000108H .rtc$TZZ                DATA
 0002:00005ab0 00000190H .xdata$x                DATA
 0002:00005c40 00001091H .edata                  DATA
 0003:00000000 00000878H .data                   DATA
 0003:00000878 00000458H .bss                    DATA
 0004:00000000 000001b4H .idata$5                DATA
 0004:000001b4 0000003cH .idata$2                DATA
 0004:000001f0 00000014H .idata$3                DATA
 0004:00000204 000001b4H .idata$4                DATA
 0004:000003b8 0000059dH .idata$6                DATA
 0005:00000000 00000125H .gfids$y                DATA
 0006:00000000 00000104H .00cfg                  DATA
 0007:00000000 00000170H .rsrc$01                DATA
 0007:00000170 000004dcH .rsrc$02                DATA

  Address         Publics by Value              Rva+Base       Lib:Object

 0000:00000000       ___guard_iat_count         00000000     <absolute>
 0000:00000000       ___safe_se_handler_count   00000000     <absolute>
 0000:00000000       ___dynamic_value_reloc_table 00000000     <absolute>
 0000:00000000       ___guard_iat_table         00000000     <absolute>
 0000:00000000       ___guard_fids_table        00000000     <absolute>
 0000:00000000       ___safe_se_handler_table   00000000     <absolute>
 0000:00000000       ___guard_longjmp_count     00000000     <absolute>
 0000:00000000       ___guard_longjmp_table     00000000     <absolute>
 0000:00000000       ___guard_fids_count        00000000     <absolute>
 0000:00000100       ___guard_flags             00000100     <absolute>
 0000:00000000       ___ImageBase               10000000     <linker-defined>
 0001:00000a20       _longest_match             10001a20 f   match686.obj
 0001:00000c08       _match_init                10001c08 f   match686.obj
 0001:00000d90       _inflate_fast              10001d90 f   inffas32.obj
 0001:00001610       _adler32@12                10002610 f   adler32.obj
 0001:00001630       _adler32_z@12              10002630 f   adler32.obj
 0001:00001bd0       _adler32_combine@12        10002bd0 f   adler32.obj
 0001:00001cf0       _adler32_combine64@16      10002cf0 f   adler32.obj
 0001:00001ed0       _compress@16               10002ed0 f   compress.obj
 0001:00001ef0       _compress2@20              10002ef0 f   compress.obj
 0001:00002020       _compressBound@4           10003020 f   compress.obj
 0001:000020a0       _crc32@12                  100030a0 f   crc32.obj
 0001:000020c0       _crc32_z@12                100030c0 f   crc32.obj
 0001:00002310       _crc32_combine@12          10003310 f   crc32.obj
 0001:00002330       _get_crc_table@0           10003330 f   crc32.obj
 0001:00003010       _crc32_combine64@16        10004010 f   crc32.obj
 0001:00003420       _deflate@8                 10004420 f   deflate.obj
 0001:00004440       _deflateEnd@4              10005440 f   deflate.obj
 0001:00004550       _deflateSetDictionary@12   10005550 f   deflate.obj
 0001:000047c0       _deflateGetDictionary@12   100057c0 f   deflate.obj
 0001:00004860       _deflateCopy@8             10005860 f   deflate.obj
 0001:00004ac0       _deflateReset@4            10005ac0 f   deflate.obj
 0001:00004af0       _deflateParams@12          10005af0 f   deflate.obj
 0001:00004ca0       _deflateTune@20            10005ca0 f   deflate.obj
 0001:00004d00       _deflateBound@8            10005d00 f   deflate.obj
 0001:00004e90       _deflatePending@12         10005e90 f   deflate.obj
 0001:00004ee0       _deflatePrime@12           10005ee0 f   deflate.obj
 0001:00004fc0       _deflateSetHeader@8        10005fc0 f   deflate.obj
 0001:00005000       _deflateInit_@16           10006000 f   deflate.obj
 0001:00005030       _deflateInit2_@32          10006030 f   deflate.obj
 0001:000053a0       _deflateResetKeep@4        100063a0 f   deflate.obj
 0001:00008990       _gzclose@4                 10009990 f   gzclose.obj
 0001:000089f0       _gzdopen@8                 100099f0 f   gzlib.obj
 0001:00008a60       _gzbuffer@8                10009a60 f   gzlib.obj
 0001:00008ad0       _gzrewind@4                10009ad0 f   gzlib.obj
 0001:00008b60       _gzeof@4                   10009b60 f   gzlib.obj
 0001:00008bc0       _gzerror@8                 10009bc0 f   gzlib.obj
 0001:00008c40       _gzclearerr@4              10009c40 f   gzlib.obj
 0001:00008cb0       _gzopen@8                  10009cb0 f   gzlib.obj
 0001:00008cd0       _gzseek@12                 10009cd0 f   gzlib.obj
 0001:00008d30       _gztell@4                  10009d30 f   gzlib.obj
 0001:00008d80       _gzoffset@4                10009d80 f   gzlib.obj
 0001:00008dd0       _gzopen_w@8                10009dd0 f   gzlib.obj
 0001:00008df0       _gzopen64@8                10009df0 f   gzlib.obj
 0001:00008e10       _gzseek64@16               10009e10 f   gzlib.obj
 0001:000090f0       _gztell64@4                1000a0f0 f   gzlib.obj
 0001:00009170       _gzoffset64@4              1000a170 f   gzlib.obj
 0001:00009210       _gz_error                  1000a210 f   gzlib.obj
 0001:00009b70       ___local_stdio_printf_options 1000ab70 f i gzlib.obj
 0001:00009b80       _snprintf                  1000ab80 f i gzlib.obj
 0001:00009bd0       _vsnprintf                 1000abd0 f i gzlib.obj
 0001:00009c40       _gzread@12                 1000ac40 f   gzread.obj
 0001:00009ce0       _gzfread@16                1000ace0 f   gzread.obj
 0001:00009d90       _gzgets@12                 1000ad90 f   gzread.obj
 0001:00009f40       _gzgetc@4                  1000af40 f   gzread.obj
 0001:0000a010       _gzungetc@8                1000b010 f   gzread.obj
 0001:0000a1e0       _gzdirect@4                1000b1e0 f   gzread.obj
 0001:0000a230       _gzclose_r@4               1000b230 f   gzread.obj
 0001:0000a320       _gzgetc_@4                 1000b320 f   gzread.obj
 0001:0000afe0       _gzsetparams@12            1000bfe0 f   gzwrite.obj
 0001:0000b0d0       _gzwrite@12                1000c0d0 f   gzwrite.obj
 0001:0000b140       _gzfwrite@16               1000c140 f   gzwrite.obj
 0001:0000b1e0       _gzprintf                  1000c1e0 f   gzwrite.obj
 0001:0000b220       _gzputs@8                  1000c220 f   gzwrite.obj
 0001:0000b2a0       _gzputc@8                  1000c2a0 f   gzwrite.obj
 0001:0000b3d0       _gzflush@8                 1000c3d0 f   gzwrite.obj
 0001:0000b470       _gzclose_w@4               1000c470 f   gzwrite.obj
 0001:0000b590       _gzvprintf                 1000c590 f   gzwrite.obj
 0001:0000c170       _inflateBack@20            1000d170 f   infback.obj
 0001:0000d540       _inflateBackEnd@4          1000e540 f   infback.obj
 0001:0000d590       _inflateBackInit_@20       1000e590 f   infback.obj
 0001:0000dc40       _inflate@8                 1000ec40 f   inflate.obj
 0001:0000fe00       _inflateEnd@4              10010e00 f   inflate.obj
 0001:0000fe80       _inflateSetDictionary@12   10010e80 f   inflate.obj
 0001:0000ff50       _inflateGetDictionary@12   10010f50 f   inflate.obj
 0001:0000fff0       _inflateSync@4             10010ff0 f   inflate.obj
 0001:00010180       _inflateCopy@8             10011180 f   inflate.obj
 0001:00010340       _inflateReset@4            10011340 f   inflate.obj
 0001:000103a0       _inflateReset2@8           100113a0 f   inflate.obj
 0001:00010470       _inflatePrime@12           10011470 f   inflate.obj
 0001:00010510       _inflateMark@4             10011510 f   inflate.obj
 0001:00010590       _inflateGetHeader@8        10011590 f   inflate.obj
 0001:000105f0       _inflateInit_@12           100115f0 f   inflate.obj
 0001:00010610       _inflateInit2_@16          10011610 f   inflate.obj
 0001:00010730       _inflateSyncPoint@4        10011730 f   inflate.obj
 0001:00010790       _inflateUndermine@8        10011790 f   inflate.obj
 0001:000107d0       _inflateValidate@8         100117d0 f   inflate.obj
 0001:00010830       _inflateCodesUsed@4        10011830 f   inflate.obj
 0001:00010870       _inflateResetKeep@4        10011870 f   inflate.obj
 0001:00011830       _inflate_table             10012830 f   inftrees.obj
 0001:00011f40       _fill_fopen64_filefunc     10012f40 f   ioapi.obj
 0001:00011fa0       _fill_fopen_filefunc       10012fa0 f   ioapi.obj
 0001:00012000       _call_zopen64              10013000 f   ioapi.obj
 0001:00012050       _call_zseek64              10013050 f   ioapi.obj
 0001:000120d0       _call_ztell64              100130d0 f   ioapi.obj
 0001:00012130       _fill_zlib_filefunc64_32_def_from_filefunc32 10013130 f   ioapi.obj
 0001:000125e0       _fill_win32_filefunc       100135e0 f   iowin32.obj
 0001:00012640       _fill_win32_filefunc64     10013640 f   iowin32.obj
 0001:000126a0       _fill_win32_filefunc64A    100136a0 f   iowin32.obj
 0001:00012700       _fill_win32_filefunc64W    10013700 f   iowin32.obj
 0001:00012760       _win32_open_file_func      10013760 f   iowin32.obj
 0001:000127d0       _win32_read_file_func      100137d0 f   iowin32.obj
 0001:00012840       _win32_write_file_func     10013840 f   iowin32.obj
 0001:000128b0       _win32_tell64_file_func    100138b0 f   iowin32.obj
 0001:00012940       _win32_seek64_file_func    10013940 f   iowin32.obj
 0001:00012a00       _win32_close_file_func     10013a00 f   iowin32.obj
 0001:00012a50       _win32_error_file_func     10013a50 f   iowin32.obj
 0001:00012b70       _win32_open64_file_func    10013b70 f   iowin32.obj
 0001:00012be0       _win32_open64_file_funcA   10013be0 f   iowin32.obj
 0001:00012c50       _win32_open64_file_funcW   10013c50 f   iowin32.obj
 0001:00012d30       _win32_tell_file_func      10013d30 f   iowin32.obj
 0001:00012db0       _win32_seek_file_func      10013db0 f   iowin32.obj
 0001:00013090       __tr_init                  10014090 f   trees.obj
 0001:00013120       __tr_tally                 10014120 f   trees.obj
 0001:00013260       __tr_flush_block           10014260 f   trees.obj
 0001:00013630       __tr_flush_bits            10014630 f   trees.obj
 0001:00013650       __tr_align                 10014650 f   trees.obj
 0001:000138c0       __tr_stored_block          100148c0 f   trees.obj
 0001:00016e70       _uncompress@16             10017e70 f   uncompr.obj
 0001:00016e90       _uncompress2@16            10017e90 f   uncompr.obj
 0001:00017080       _unzStringFileNameCompare@12 10018080 f   unzip.obj
 0001:000170c0       _unzOpen@4                 100180c0 f   unzip.obj
 0001:000170e0       _unzOpen64@4               100180e0 f   unzip.obj
 0001:00017100       _unzOpen2@8                10018100 f   unzip.obj
 0001:00017150       _unzOpen2_64@8             10018150 f   unzip.obj
 0001:000171b0       _unzClose@4                100181b0 f   unzip.obj
 0001:00017210       _unzGetGlobalInfo@8        10018210 f   unzip.obj
 0001:00017250       _unzGetGlobalInfo64@8      10018250 f   unzip.obj
 0001:00017290       _unzGetGlobalComment@12    10018290 f   unzip.obj
 0001:00017360       _unzGoToFirstFile@4        10018360 f   unzip.obj
 0001:00017400       _unzGoToNextFile@4         10018400 f   unzip.obj
 0001:00017540       _unzLocateFile@12          10018540 f   unzip.obj
 0001:000176a0       _unzGetFilePos@8           100186a0 f   unzip.obj
 0001:000176e0       _unzGoToFilePos@8          100186e0 f   unzip.obj
 0001:00017730       _unzGetFilePos64@8         10018730 f   unzip.obj
 0001:000177a0       _unzGoToFilePos64@8        100187a0 f   unzip.obj
 0001:00017840       _unzGetCurrentFileInfo64@32 10018840 f   unzip.obj
 0001:00017880       _unzGetCurrentFileInfo@32  10018880 f   unzip.obj
 0001:00017980       _unzGetCurrentFileZStreamPos64@4 10018980 f   unzip.obj
 0001:000179e0       _unzOpenCurrentFile@4      100189e0 f   unzip.obj
 0001:00017a00       _unzOpenCurrentFilePassword@8 10018a00 f   unzip.obj
 0001:00017a20       _unzOpenCurrentFile2@16    10018a20 f   unzip.obj
 0001:00017a40       _unzOpenCurrentFile3@20    10018a40 f   unzip.obj
 0001:00017db0       _unzCloseCurrentFile@4     10018db0 f   unzip.obj
 0001:00017ea0       _unzReadCurrentFile@12     10018ea0 f   unzip.obj
 0001:00018380       _unztell@4                 10019380 f   unzip.obj
 0001:000183c0       _unztell64@4               100193c0 f   unzip.obj
 0001:00018410       _unzeof@4                  10019410 f   unzip.obj
 0001:00018470       _unzGetLocalExtrafield@12  10019470 f   unzip.obj
 0001:00018580       _unzGetOffset64@4          10019580 f   unzip.obj
 0001:00018630       _unzGetOffset@4            10019630 f   unzip.obj
 0001:00018660       _unzSetOffset64@12         10019660 f   unzip.obj
 0001:00018700       _unzSetOffset@8            10019700 f   unzip.obj
 0001:0001ae10       _zipOpen@8                 1001be10 f   zip.obj
 0001:0001ae30       _zipOpen64@8               1001be30 f   zip.obj
 0001:0001ae50       _zipOpen2@16               1001be50 f   zip.obj
 0001:0001aea0       _zipOpen2_64@16            1001bea0 f   zip.obj
 0001:0001af00       _zipOpenNewFileInZip@40    1001bf00 f   zip.obj
 0001:0001af50       _zipOpenNewFileInZip64@44  1001bf50 f   zip.obj
 0001:0001afa0       _zipOpenNewFileInZip2@44   1001bfa0 f   zip.obj
 0001:0001aff0       _zipOpenNewFileInZip2_64@48 1001bff0 f   zip.obj
 0001:0001b040       _zipOpenNewFileInZip3@64   1001c040 f   zip.obj
 0001:0001b0a0       _zipOpenNewFileInZip3_64@68 1001c0a0 f   zip.obj
 0001:0001b100       _zipOpenNewFileInZip4@72   1001c100 f   zip.obj
 0001:0001b160       _zipOpenNewFileInZip4_64@76 1001c160 f   zip.obj
 0001:0001b8b0       _zipWriteInFileInZip@12    1001c8b0 f   zip.obj
 0001:0001bab0       _zipCloseFileInZip@4       1001cab0 f   zip.obj
 0001:0001bad0       _zipCloseFileInZipRaw@12   1001cad0 f   zip.obj
 0001:0001baf0       _zipCloseFileInZipRaw64@16 1001caf0 f   zip.obj
 0001:0001c1f0       _zipClose@8                1001d1f0 f   zip.obj
 0001:0001c410       _zipRemoveExtraInfoBlock@12 1001d410 f   zip.obj
 0001:0001d510       _LoadCentralDirectoryRecord 1001e510 f   zip.obj
 0001:0001db50       _zipOpen3@16               1001eb50 f   zip.obj
 0001:0001dd10       _Write_LocalFileHeader     1001ed10 f   zip.obj
 0001:0001e1d0       _Write_Zip64EndOfCentralDirectoryLocator 1001f1d0 f   zip.obj
 0001:0001e290       _Write_Zip64EndOfCentralDirectoryRecord 1001f290 f   zip.obj
 0001:0001e440       _Write_EndOfCentralDirectoryRecord 1001f440 f   zip.obj
 0001:0001e640       _Write_GlobalComment       1001f640 f   zip.obj
 0001:0001f500       _zlibVersion@0             10020500 f   zutil.obj
 0001:0001f510       _zlibCompileFlags@0        10020510 f   zutil.obj
 0001:0001f640       _zError@4                  10020640 f   zutil.obj
 0001:0001f660       _zcalloc                   10020660 f   zutil.obj
 0001:0001f680       _zcfree                    10020680 f   zutil.obj
 0001:0001f6f6       _CreateFileA@28            100206f6 f   kernel32:KERNEL32.dll
 0001:0001f6fc       _CreateFileW@28            100206fc f   kernel32:KERNEL32.dll
 0001:0001f702       _ReadFile@20               10020702 f   kernel32:KERNEL32.dll
 0001:0001f708       _SetFilePointer@16         10020708 f   kernel32:KERNEL32.dll
 0001:0001f70e       _WriteFile@20              1002070e f   kernel32:KERNEL32.dll
 0001:0001f714       _CloseHandle@4             10020714 f   kernel32:KERNEL32.dll
 0001:0001f71a       _GetLastError@0            1002071a f   kernel32:KERNEL32.dll
 0001:0001f720       __allrem                   10020720 f   MSVCRTD:llrem.obj
 0001:0001f800       __allshr                   10020800 f   MSVCRTD:llshr.obj
 0001:0001f830       __allmul                   10020830 f   MSVCRTD:llmul.obj
 0001:0001f880       __allshl                   10020880 f   MSVCRTD:llshl.obj
 0001:0001f8b0       __aulldiv                  100208b0 f   MSVCRTD:ulldiv.obj
 0001:0001f940       __aullshr                  10020940 f   MSVCRTD:ullshr.obj
 0001:0001f970       __alloca_probe             10020970 f   MSVCRTD:chkstk.obj
 0001:0001f970       __chkstk                   10020970 f   MSVCRTD:chkstk.obj
 0001:0001ff70       __CRT_INIT@12              10020f70 f   MSVCRTD:dll_dllmain.obj
 0001:0001ff90       __DllMainCRTStartup@12     10020f90 f   MSVCRTD:dll_dllmain.obj
 0001:0001ffc0       ??$__crt_fast_decode_pointer@PAP6AXXZ@@YAPAP6AXXZQAP6AXXZ@Z 10020fc0 f i MSVCRTD:utility.obj
 0001:0001fff0       ??$__crt_fast_encode_pointer@PAP6AXXZ@@YAPAP6AXXZQAP6AXXZ@Z 10020ff0 f i MSVCRTD:utility.obj
 0001:00020030       ?__crt_rotate_pointer_value@@YAIIH@Z 10021030 f i MSVCRTD:utility.obj
 0001:00020040       ?configure_argv@__scrt_narrow_argv_policy@@SAHXZ 10021040 f i MSVCRTD:utility.obj
 0001:000201a0       _NtCurrentTeb              100211a0 f i MSVCRTD:utility.obj
 0001:000201b0       ___scrt_acquire_startup_lock 100211b0 f   MSVCRTD:utility.obj
 0001:00020210       ___scrt_dllmain_after_initialize_c 10021210 f   MSVCRTD:utility.obj
 0001:00020250       ___scrt_dllmain_before_initialize_c 10021250 f   MSVCRTD:utility.obj
 0001:00020280       ___scrt_dllmain_crt_thread_attach 10021280 f   MSVCRTD:utility.obj
 0001:000202c0       ___scrt_dllmain_crt_thread_detach 100212c0 f   MSVCRTD:utility.obj
 0001:000202e0       ___scrt_dllmain_exception_filter 100212e0 f   MSVCRTD:utility.obj
 0001:00020340       ___scrt_dllmain_uninitialize_c 10021340 f   MSVCRTD:utility.obj
 0001:00020380       ___scrt_dllmain_uninitialize_critical 10021380 f   MSVCRTD:utility.obj
 0001:000203a0       ___scrt_initialize_crt     100213a0 f   MSVCRTD:utility.obj
 0001:00020400       ___scrt_initialize_onexit_tables 10021400 f   MSVCRTD:utility.obj
 0001:00020500       ___scrt_is_nonwritable_in_current_image 10021500 f   MSVCRTD:utility.obj
 0001:00020680       ___scrt_release_startup_lock 10021680 f   MSVCRTD:utility.obj
 0001:000206b0       ___scrt_uninitialize_crt   100216b0 f   MSVCRTD:utility.obj
 0001:00020700       __onexit                   10021700 f   MSVCRTD:utility.obj
 0001:00020790       _at_quick_exit             10021790 f   MSVCRTD:utility.obj
 0001:000207f0       _atexit                    100217f0 f   MSVCRTD:utility.obj
 0001:00020830       ___security_init_cookie    10021830 f   MSVCRTD:gs_support.obj
 0001:00020950       _DllMain@12                10021950 f   MSVCRTD:dll_dllmain_stub.obj
 0001:00020980       ?__scrt_initialize_type_info@@YAXXZ 10021980 f   MSVCRTD:tncleanup.obj
 0001:000209a0       ?__scrt_uninitialize_type_info@@YAXXZ 100219a0 f   MSVCRTD:tncleanup.obj
 0001:000209c0       ___local_stdio_scanf_options 100219c0 f i MSVCRTD:default_local_stdio_options.obj
 0001:000209d0       ___scrt_initialize_default_local_stdio_options 100219d0 f   MSVCRTD:default_local_stdio_options.obj
 0001:00020a20       ___scrt_get_dyn_tls_init_callback 10021a20 f   MSVCRTD:dyn_tls_init.obj
 0001:00020a30       ___scrt_fastfail           10021a30 f   MSVCRTD:utility_desktop.obj
 0001:00020bc0       ___scrt_get_show_window_mode 10021bc0 f   MSVCRTD:utility_desktop.obj
 0001:00020c10       ___scrt_initialize_winrt   10021c10 f   MSVCRTD:utility_desktop.obj
 0001:00020c20       ___scrt_is_managed_app     10021c20 f   MSVCRTD:utility_desktop.obj
 0001:00020cd0       ___scrt_set_unhandled_exception_filter 10021cd0 f   MSVCRTD:utility_desktop.obj
 0001:00020cf0       ___scrt_unhandled_exception_filter@4 10021cf0 f   MSVCRTD:utility_desktop.obj
 0001:00020d70       __crt_debugger_hook        10021d70 f   MSVCRTD:utility_desktop.obj
 0001:00020d90       __RTC_Initialize           10021d90 f   MSVCRTD:_initsect_.obj
 0001:00020dd0       __RTC_Terminate            10021dd0 f   MSVCRTD:_initsect_.obj
 0001:00020e10       @_guard_check_icall@4      10021e10 f i MSVCRTD:checkcfg.obj
 0001:00020e30       __except_handler4          10021e30 f   MSVCRTD:_chandler4gs_.obj
 0001:00020e60       ___isa_available_init      10021e60 f   MSVCRTD:_cpu_disp_.obj
 0001:000211f0       __get_startup_argv_mode    100221f0 f   MSVCRTD:argv_mode.obj
 0001:00021200       ___scrt_is_ucrt_dll_in_use 10022200 f   MSVCRTD:ucrt_detection.obj
 0001:00021230       @_guard_check_icall_nop@4  10022230 f i MSVCRTD:guard_support.obj
 0001:00021240       __guard_icall_checks_enforced 10022240 f i MSVCRTD:guard_support.obj
 0001:00021270       @__security_check_cookie@4 10022270 f   MSVCRTD:_secchk_.obj
 0001:00021290       ___raise_securityfailure   10022290 f   MSVCRTD:gs_report.obj
 0001:000212d0       ___report_gsfailure        100222d0 f   MSVCRTD:gs_report.obj
 0001:00021420       ___report_rangecheckfailure 10022420 f   MSVCRTD:gs_report.obj
 0001:00021430       ___report_securityfailure  10022430 f   MSVCRTD:gs_report.obj
 0001:00021540       ___report_securityfailureEx 10022540 f   MSVCRTD:gs_report.obj
 0001:000216ae       _memcpy                    100226ae f   vcruntimed:VCRUNTIME140D.dll
 0001:000216b4       _memset                    100226b4 f   vcruntimed:VCRUNTIME140D.dll
 0001:000216ba       _memchr                    100226ba f   vcruntimed:VCRUNTIME140D.dll
 0001:000216c0       ___std_type_info_destroy_list 100226c0 f   vcruntimed:VCRUNTIME140D.dll
 0001:000216c6       __except_handler4_common   100226c6 f   vcruntimed:VCRUNTIME140D.dll
 0001:000216cc       ___stdio_common_vsprintf   100226cc f   ucrtd:ucrtbased.dll
 0001:000216d2       _strlen                    100226d2 f   ucrtd:ucrtbased.dll
 0001:000216d8       _free                      100226d8 f   ucrtd:ucrtbased.dll
 0001:000216de       _malloc                    100226de f   ucrtd:ucrtbased.dll
 0001:000216e4       _wcstombs                  100226e4 f   ucrtd:ucrtbased.dll
 0001:000216ea       __wopen                    100226ea f   ucrtd:ucrtbased.dll
 0001:000216f0       __lseeki64                 100226f0 f   ucrtd:ucrtbased.dll
 0001:000216f6       __open                     100226f6 f   ucrtd:ucrtbased.dll
 0001:000216fc       __errno                    100226fc f   ucrtd:ucrtbased.dll
 0001:00021702       _strerror                  10022702 f   ucrtd:ucrtbased.dll
 0001:00021708       __close                    10022708 f   ucrtd:ucrtbased.dll
 0001:0002170e       __read                     1002270e f   ucrtd:ucrtbased.dll
 0001:00021714       __write                    10022714 f   ucrtd:ucrtbased.dll
 0001:0002171a       _fclose                    1002271a f   ucrtd:ucrtbased.dll
 0001:00021720       _ferror                    10022720 f   ucrtd:ucrtbased.dll
 0001:00021726       _fopen                     10022726 f   ucrtd:ucrtbased.dll
 0001:0002172c       _fread                     1002272c f   ucrtd:ucrtbased.dll
 0001:00021732       _fseek                     10022732 f   ucrtd:ucrtbased.dll
 0001:00021738       __fseeki64                 10022738 f   ucrtd:ucrtbased.dll
 0001:0002173e       _ftell                     1002273e f   ucrtd:ucrtbased.dll
 0001:00021744       __ftelli64                 10022744 f   ucrtd:ucrtbased.dll
 0001:0002174a       _fwrite                    1002274a f   ucrtd:ucrtbased.dll
 0001:00021750       _strcmp                    10022750 f   ucrtd:ucrtbased.dll
 0001:00021756       _srand                     10022756 f   ucrtd:ucrtbased.dll
 0001:0002175c       _rand                      1002275c f   ucrtd:ucrtbased.dll
 0001:00021762       __time64                   10022762 f   ucrtd:ucrtbased.dll
 0001:00021768       __initterm                 10022768 f   ucrtd:ucrtbased.dll
 0001:0002176e       __initterm_e               1002276e f   ucrtd:ucrtbased.dll
 0001:00021774       __seh_filter_dll           10022774 f   ucrtd:ucrtbased.dll
 0001:0002177a       __configure_narrow_argv    1002277a f   ucrtd:ucrtbased.dll
 0001:00021780       __initialize_narrow_environment 10022780 f   ucrtd:ucrtbased.dll
 0001:00021786       __initialize_onexit_table  10022786 f   ucrtd:ucrtbased.dll
 0001:0002178c       __register_onexit_function 1002278c f   ucrtd:ucrtbased.dll
 0001:00021792       __execute_onexit_table     10022792 f   ucrtd:ucrtbased.dll
 0001:00021798       __crt_atexit               10022798 f   ucrtd:ucrtbased.dll
 0001:0002179e       __crt_at_quick_exit        1002279e f   ucrtd:ucrtbased.dll
 0001:000217a4       __cexit                    100227a4 f   ucrtd:ucrtbased.dll
 0001:000217aa       _terminate                 100227aa f   ucrtd:ucrtbased.dll
 0001:000217b0       _QueryPerformanceCounter@4 100227b0 f   kernel32:KERNEL32.dll
 0001:000217b6       _GetCurrentProcessId@0     100227b6 f   kernel32:KERNEL32.dll
 0001:000217bc       _GetCurrentThreadId@0      100227bc f   kernel32:KERNEL32.dll
 0001:000217c2       _GetSystemTimeAsFileTime@4 100227c2 f   kernel32:KERNEL32.dll
 0001:000217c8       _DisableThreadLibraryCalls@4 100227c8 f   kernel32:KERNEL32.dll
 0001:000217ce       _InitializeSListHead@4     100227ce f   kernel32:KERNEL32.dll
 0001:000217d4       _IsDebuggerPresent@0       100227d4 f   kernel32:KERNEL32.dll
 0001:000217da       _UnhandledExceptionFilter@4 100227da f   kernel32:KERNEL32.dll
 0001:000217e0       _SetUnhandledExceptionFilter@4 100227e0 f   kernel32:KERNEL32.dll
 0001:000217e6       _GetStartupInfoW@4         100227e6 f   kernel32:KERNEL32.dll
 0001:000217ec       _IsProcessorFeaturePresent@4 100227ec f   kernel32:KERNEL32.dll
 0001:000217f2       _GetModuleHandleW@4        100227f2 f   kernel32:KERNEL32.dll
 0001:000217f8       _GetCurrentProcess@0       100227f8 f   kernel32:KERNEL32.dll
 0001:000217fe       _TerminateProcess@8        100227fe f   kernel32:KERNEL32.dll
 0001:00021810       ___vcrt_initialize         10022810 f   MSVCRTD:ucrt_stubs.obj
 0001:00021810       ___scrt_stub_for_acrt_initialize 10022810 f   MSVCRTD:ucrt_stubs.obj
 0001:00021810       ___acrt_initialize         10022810 f   MSVCRTD:ucrt_stubs.obj
 0001:00021820       ___scrt_stub_for_acrt_thread_attach 10022820 f   MSVCRTD:ucrt_stubs.obj
 0001:00021820       ___vcrt_thread_attach      10022820 f   MSVCRTD:ucrt_stubs.obj
 0001:00021820       ___acrt_thread_attach      10022820 f   MSVCRTD:ucrt_stubs.obj
 0001:00021830       ___acrt_thread_detach      10022830 f   MSVCRTD:ucrt_stubs.obj
 0001:00021830       ___vcrt_thread_detach      10022830 f   MSVCRTD:ucrt_stubs.obj
 0001:00021830       ___scrt_stub_for_acrt_thread_detach 10022830 f   MSVCRTD:ucrt_stubs.obj
 0001:00021840       ___vcrt_uninitialize       10022840 f   MSVCRTD:ucrt_stubs.obj
 0001:00021840       ___acrt_uninitialize       10022840 f   MSVCRTD:ucrt_stubs.obj
 0001:00021840       ___scrt_stub_for_acrt_uninitialize 10022840 f   MSVCRTD:ucrt_stubs.obj
 0001:00021850       ___scrt_stub_for_acrt_uninitialize_critical 10022850 f   MSVCRTD:ucrt_stubs.obj
 0001:00021850       ___vcrt_uninitialize_critical 10022850 f   MSVCRTD:ucrt_stubs.obj
 0001:00021850       ___acrt_uninitialize_critical 10022850 f   MSVCRTD:ucrt_stubs.obj
 0001:00021860       __is_c_termination_complete 10022860 f   MSVCRTD:ucrt_stubs.obj
 0001:00021860       ___scrt_stub_for_is_c_termination_complete 10022860 f   MSVCRTD:ucrt_stubs.obj
 0002:00000000       ___xc_a                    10024000     MSVCRTD:initializers.obj
 0002:00000104       ___xc_z                    10024104     MSVCRTD:initializers.obj
 0002:00000208       ___xi_a                    10024208     MSVCRTD:initializers.obj
 0002:0000030c       ___xi_z                    1002430c     MSVCRTD:initializers.obj
 0002:00000410       ___xp_a                    10024410     MSVCRTD:initializers.obj
 0002:00000514       ___xp_z                    10024514     MSVCRTD:initializers.obj
 0002:00000618       ___xt_a                    10024618     MSVCRTD:initializers.obj
 0002:0000071c       ___xt_z                    1002471c     MSVCRTD:initializers.obj
 0002:00002e88       _deflate_copyright         10026e88     deflate.obj
 0002:00004438       _inflate_copyright         10028438     inftrees.obj
 0002:000045a8       __length_code              100285a8     trees.obj
 0002:000046a8       __dist_code                100286a8     trees.obj
 0002:00005238       _unz_copyright             10029238     unzip.obj
 0002:000052a0       _zip_copyright             100292a0     zip.obj
 0002:00005300       _z_errmsg                  10029300     zutil.obj
 0002:00005330       __pDefaultRawDllMain       10029330     MSVCRTD:dll_dllmain.obj
 0002:00005330       __pRawDllMain              10029330     MSVCRTD:dll_dllmain.obj
 0002:00005378       __load_config_used         10029378     MSVCRTD:loadcfg.obj
 0002:0000569c       ___rtc_iaa                 1002969c     MSVCRTD:_initsect_.obj
 0002:000057a0       ___rtc_izz                 100297a0     MSVCRTD:_initsect_.obj
 0002:000058a4       ___rtc_taa                 100298a4     MSVCRTD:_initsect_.obj
 0002:000059a8       ___rtc_tzz                 100299a8     MSVCRTD:_initsect_.obj
 0003:00000750       ___scrt_native_dllmain_reason 1002b750     MSVCRTD:utility.obj
 0003:00000754       ___security_cookie_complement 1002b754     MSVCRTD:gs_cookie.obj
 0003:00000758       ___security_cookie         1002b758     MSVCRTD:gs_cookie.obj
 0003:00000760       ___isa_enabled             1002b760     MSVCRTD:_cpu_disp_.obj
 0003:00000764       ___scrt_ucrt_dll_is_in_use 1002b764     MSVCRTD:ucrt_stubs.obj
 0003:00000888       ___scrt_current_native_startup_state 1002b888     MSVCRTD:utility.obj
 0003:0000088c       ___scrt_native_startup_lock 1002b88c     MSVCRTD:utility.obj
 0003:000008b0       ?__type_info_root_node@@3U__type_info_node@@A 1002b8b0     MSVCRTD:tncleanup.obj
 0003:000008c0       ?_OptionsStorage@?1??__local_stdio_printf_options@@9@4_KA 1002b8c0     MSVCRTD:default_local_stdio_options.obj
 0003:000008d0       ?_OptionsStorage@?1??__local_stdio_scanf_options@@9@4_KA 1002b8d0     MSVCRTD:default_local_stdio_options.obj
 0003:000008dc       ___scrt_debugger_hook_flag 1002b8dc     MSVCRTD:utility_desktop.obj
 0003:000008e0       ___isa_available           1002b8e0     MSVCRTD:_cpu_disp_.obj
 0003:000008e4       ___favor                   1002b8e4     MSVCRTD:_cpu_disp_.obj
 0003:00000cb0       ?_OptionsStorage@?1??__local_stdio_printf_options@@9@9 1002bcb0     <common>
 0003:00000cc4       ___dyn_tls_init_callback   1002bcc4     <common>
 0004:00000000       __imp__CreateFileA@28      1002c000     kernel32:KERNEL32.dll
 0004:00000004       __imp__CreateFileW@28      1002c004     kernel32:KERNEL32.dll
 0004:00000008       __imp__ReadFile@20         1002c008     kernel32:KERNEL32.dll
 0004:0000000c       __imp__SetFilePointer@16   1002c00c     kernel32:KERNEL32.dll
 0004:00000010       __imp__WriteFile@20        1002c010     kernel32:KERNEL32.dll
 0004:00000014       __imp__CloseHandle@4       1002c014     kernel32:KERNEL32.dll
 0004:00000018       __imp__GetLastError@0      1002c018     kernel32:KERNEL32.dll
 0004:0000001c       __imp__GetCurrentProcess@0 1002c01c     kernel32:KERNEL32.dll
 0004:00000020       __imp__GetModuleHandleW@4  1002c020     kernel32:KERNEL32.dll
 0004:00000024       __imp__IsProcessorFeaturePresent@4 1002c024     kernel32:KERNEL32.dll
 0004:00000028       __imp__GetStartupInfoW@4   1002c028     kernel32:KERNEL32.dll
 0004:0000002c       __imp__SetUnhandledExceptionFilter@4 1002c02c     kernel32:KERNEL32.dll
 0004:00000030       __imp__UnhandledExceptionFilter@4 1002c030     kernel32:KERNEL32.dll
 0004:00000034       __imp__IsDebuggerPresent@0 1002c034     kernel32:KERNEL32.dll
 0004:00000038       __imp__InitializeSListHead@4 1002c038     kernel32:KERNEL32.dll
 0004:0000003c       __imp__DisableThreadLibraryCalls@4 1002c03c     kernel32:KERNEL32.dll
 0004:00000040       __imp__GetSystemTimeAsFileTime@4 1002c040     kernel32:KERNEL32.dll
 0004:00000044       __imp__GetCurrentThreadId@0 1002c044     kernel32:KERNEL32.dll
 0004:00000048       __imp__GetCurrentProcessId@0 1002c048     kernel32:KERNEL32.dll
 0004:0000004c       __imp__QueryPerformanceCounter@4 1002c04c     kernel32:KERNEL32.dll
 0004:00000050       __imp__TerminateProcess@8  1002c050     kernel32:KERNEL32.dll
 0004:00000054       \177KERNEL32_NULL_THUNK_DATA 1002c054     kernel32:KERNEL32.dll
 0004:00000090       __imp__memcpy              1002c090     vcruntimed:VCRUNTIME140D.dll
 0004:00000094       __imp__memchr              1002c094     vcruntimed:VCRUNTIME140D.dll
 0004:00000098       __imp____std_type_info_destroy_list 1002c098     vcruntimed:VCRUNTIME140D.dll
 0004:0000009c       __imp___except_handler4_common 1002c09c     vcruntimed:VCRUNTIME140D.dll
 0004:000000a0       __imp__memset              1002c0a0     vcruntimed:VCRUNTIME140D.dll
 0004:000000a4       \177VCRUNTIME140D_NULL_THUNK_DATA 1002c0a4     vcruntimed:VCRUNTIME140D.dll
 0004:000000d4       __imp__ferror              1002c0d4     ucrtd:ucrtbased.dll
 0004:000000d8       __imp__fopen               1002c0d8     ucrtd:ucrtbased.dll
 0004:000000dc       __imp__fread               1002c0dc     ucrtd:ucrtbased.dll
 0004:000000e0       __imp__fseek               1002c0e0     ucrtd:ucrtbased.dll
 0004:000000e4       __imp___fseeki64           1002c0e4     ucrtd:ucrtbased.dll
 0004:000000e8       __imp___open               1002c0e8     ucrtd:ucrtbased.dll
 0004:000000ec       __imp___ftelli64           1002c0ec     ucrtd:ucrtbased.dll
 0004:000000f0       __imp__fwrite              1002c0f0     ucrtd:ucrtbased.dll
 0004:000000f4       __imp__strcmp              1002c0f4     ucrtd:ucrtbased.dll
 0004:000000f8       __imp__srand               1002c0f8     ucrtd:ucrtbased.dll
 0004:000000fc       __imp__rand                1002c0fc     ucrtd:ucrtbased.dll
 0004:00000100       __imp___time64             1002c100     ucrtd:ucrtbased.dll
 0004:00000104       __imp___initterm           1002c104     ucrtd:ucrtbased.dll
 0004:00000108       __imp___initterm_e         1002c108     ucrtd:ucrtbased.dll
 0004:0000010c       __imp___seh_filter_dll     1002c10c     ucrtd:ucrtbased.dll
 0004:00000110       __imp__fclose              1002c110     ucrtd:ucrtbased.dll
 0004:00000114       __imp___initialize_narrow_environment 1002c114     ucrtd:ucrtbased.dll
 0004:00000118       __imp___initialize_onexit_table 1002c118     ucrtd:ucrtbased.dll
 0004:0000011c       __imp___register_onexit_function 1002c11c     ucrtd:ucrtbased.dll
 0004:00000120       __imp___execute_onexit_table 1002c120     ucrtd:ucrtbased.dll
 0004:00000124       __imp___crt_atexit         1002c124     ucrtd:ucrtbased.dll
 0004:00000128       __imp___crt_at_quick_exit  1002c128     ucrtd:ucrtbased.dll
 0004:0000012c       __imp___cexit              1002c12c     ucrtd:ucrtbased.dll
 0004:00000130       __imp__terminate           1002c130     ucrtd:ucrtbased.dll
 0004:00000134       __imp___lseeki64           1002c134     ucrtd:ucrtbased.dll
 0004:00000138       __imp___wopen              1002c138     ucrtd:ucrtbased.dll
 0004:0000013c       __imp__wcstombs            1002c13c     ucrtd:ucrtbased.dll
 0004:00000140       __imp__malloc              1002c140     ucrtd:ucrtbased.dll
 0004:00000144       __imp__free                1002c144     ucrtd:ucrtbased.dll
 0004:00000148       __imp__strlen              1002c148     ucrtd:ucrtbased.dll
 0004:0000014c       __imp____stdio_common_vsprintf 1002c14c     ucrtd:ucrtbased.dll
 0004:00000150       __imp___write              1002c150     ucrtd:ucrtbased.dll
 0004:00000154       __imp___read               1002c154     ucrtd:ucrtbased.dll
 0004:00000158       __imp___close              1002c158     ucrtd:ucrtbased.dll
 0004:0000015c       __imp__strerror            1002c15c     ucrtd:ucrtbased.dll
 0004:00000160       __imp___configure_narrow_argv 1002c160     ucrtd:ucrtbased.dll
 0004:00000164       __imp___errno              1002c164     ucrtd:ucrtbased.dll
 0004:00000168       __imp__ftell               1002c168     ucrtd:ucrtbased.dll
 0004:0000016c       \177ucrtbased_NULL_THUNK_DATA 1002c16c     ucrtd:ucrtbased.dll
 0004:000001b4       __IMPORT_DESCRIPTOR_KERNEL32 1002c1b4     kernel32:KERNEL32.dll
 0004:000001c8       __IMPORT_DESCRIPTOR_VCRUNTIME140D 1002c1c8     vcruntimed:VCRUNTIME140D.dll
 0004:000001dc       __IMPORT_DESCRIPTOR_ucrtbased 1002c1dc     ucrtd:ucrtbased.dll
 0004:000001f0       __NULL_IMPORT_DESCRIPTOR   1002c1f0     kernel32:KERNEL32.dll
 0006:00000000       ___guard_check_icall_fptr  1002e000     MSVCRTD:guard_support.obj
